target datalayout = "e-m:e-p270:32:32-p271:32:32-p272:64:64-i64:64-i128:128-f80:128-n8:16:32:64-S128"
target triple = "x86_64-unknown-linux-gnu"

%"class.icu_75::UObject" = type { ptr }
%"class.icu_75::MeasureFormat" = type { %"class.icu_75::Format.base", ptr, ptr, ptr, i32, ptr }
%"class.icu_75::Format.base" = type <{ %"class.icu_75::UObject", [157 x i8], [157 x i8] }>

; Function Attrs: mustprogress uwtable
define void @_ZN6icu_7513MeasureFormatC2Ev(ptr noundef nonnull align 8 dereferenceable(368) %this) unnamed_addr #1 align 2 {
entry:
  %this.addr = alloca ptr, align 8
  store ptr %this, ptr %this.addr, align 8
  %this1 = load ptr, ptr %this.addr, align 8
  call void @_ZN6icu_756FormatC2Ev(ptr noundef nonnull align 8 dereferenceable(322) %this1)
  store ptr getelementptr inbounds ({ [10 x ptr] }, ptr @_ZTVN6icu_7513MeasureFormatE, i32 0, i32 0, i32 2), ptr %this1, align 8
  %cache = getelementptr inbounds %"class.icu_75::MeasureFormat", ptr %this1, i32 0, i32 1
  store ptr null, ptr %cache, align 8
  %numberFormat = getelementptr inbounds %"class.icu_75::MeasureFormat", ptr %this1, i32 0, i32 2
  store ptr null, ptr %numberFormat, align 8
  %pluralRules = getelementptr inbounds %"class.icu_75::MeasureFormat", ptr %this1, i32 0, i32 3
  store ptr null, ptr %pluralRules, align 8
  %fWidth = getelementptr inbounds %"class.icu_75::MeasureFormat", ptr %this1, i32 0, i32 4
  store i32 1, ptr %fWidth, align 8
  %listFormatter = getelementptr inbounds %"class.icu_75::MeasureFormat", ptr %this1, i32 0, i32 5
  store ptr null, ptr %listFormatter, align 8
  ret void
}