; Function Attrs: mustprogress uwtable
define void @_ZN6icu_7513MeasureFormatC2Ev(ptr noundef nonnull align 8 dereferenceable(368) %this) unnamed_addr #1 align 2 {
entry:
  tail call void @_ZN6icu_756FormatC2Ev(ptr noundef nonnull align 8 dereferenceable(322) %this)
  store ptr getelementptr inbounds ({ [10 x ptr] }, ptr @_ZTVN6icu_7513MeasureFormatE, i64 0, i32 0, i64 2), ptr %this, align 8
  %cache = getelementptr inbounds i8, ptr %this, i64 328
  %fWidth = getelementptr inbounds i8, ptr %this, i64 352
  tail call void @llvm.memset.p0.i64(ptr noundef nonnull align 8 dereferenceable(24) %cache, i8 0, i64 24, i1 false)
  store i32 1, ptr %fWidth, align 8
  %listFormatter = getelementptr inbounds i8, ptr %this, i64 360
  store ptr null, ptr %listFormatter, align 8
  ret void
}